; Function Attrs: mustprogress uwtable
define noundef i32 @_ZN3zmq6xsub_t11xgetsockoptEiPvPm(ptr noundef nonnull align 8 dereferenceable(2028) %this, i32 noundef %option_, ptr noundef %optval_, ptr noundef %optvallen_) unnamed_addr #0 align 2 {
entry:
  %value_.addr.i = alloca i32, align 4
  %cmp = icmp eq i32 %option_, 116
  br i1 %cmp, label %if.then, label %if.end

if.then:                                          ; preds = %entry
  %_subscriptions = getelementptr inbounds i8, ptr %this, i64 1936
  %call = tail call noundef i64 @_ZNK3zmq12radix_tree_t4sizeEv(ptr noundef nonnull align 8 dereferenceable(16) %_subscriptions)
  %conv = trunc i64 %call to i32
  call void @llvm.lifetime.start.p0(i64 4, ptr nonnull %value_.addr.i)
  store i32 %conv, ptr %value_.addr.i, align 4
  %call.i = call noundef i32 @_ZN3zmq13do_getsockoptEPvPmPKvm(ptr noundef %optval_, ptr noundef %optvallen_, ptr noundef nonnull %value_.addr.i, i64 noundef 4)
  call void @llvm.lifetime.end.p0(i64 4, ptr nonnull %value_.addr.i)
  br label %return

if.end:                                           ; preds = %entry
  %call3 = tail call ptr @__errno_location() #12
  store i32 22, ptr %call3, align 4
  br label %return

return:                                           ; preds = %if.end, %if.then
  %retval.0 = phi i32 [ %call.i, %if.then ], [ -1, %if.end ]
  ret i32 %retval.0
}